target datalayout = "e-m:e-p270:32:32-p271:32:32-p272:64:64-i64:64-i128:128-f80:128-n8:16:32:64-S128"
target triple = "x86_64-pc-linux-gnu"

%"class.draco::FloatPointsTreeEncoder" = type { %"struct.draco::QuantizationInfo", i32, i32, %"class.draco::EncoderBuffer", i32, [4 x i8] }
%"struct.draco::QuantizationInfo" = type { i32, float }
%"class.draco::EncoderBuffer" = type <{ %"class.std::vector", %"class.std::unique_ptr", i64, i8, [7 x i8] }>
%"class.std::vector" = type { %"struct.std::_Vector_base" }
%"struct.std::_Vector_base" = type { %"struct.std::_Vector_base<char, std::allocator<char>>::_Vector_impl" }
%"struct.std::_Vector_base<char, std::allocator<char>>::_Vector_impl" = type { %"struct.std::_Vector_base<char, std::allocator<char>>::_Vector_impl_data" }
%"struct.std::_Vector_base<char, std::allocator<char>>::_Vector_impl_data" = type { ptr, ptr, ptr }
%"class.std::unique_ptr" = type { %"struct.std::__uniq_ptr_data" }
%"struct.std::__uniq_ptr_data" = type { %"class.std::__uniq_ptr_impl" }
%"class.std::__uniq_ptr_impl" = type { %"class.std::tuple" }
%"class.std::tuple" = type { %"struct.std::_Tuple_impl" }
%"struct.std::_Tuple_impl" = type { %"struct.std::_Head_base.1" }
%"struct.std::_Head_base.1" = type { ptr }

; Function Attrs: mustprogress uwtable
define void @_ZN5draco22FloatPointsTreeEncoderC2ENS_27PointCloudCompressionMethodEjj(ptr noundef nonnull align 8 dereferenceable(68) %0, i32 noundef %1, i32 noundef %2, i32 noundef %3) unnamed_addr #4 align 2 {
  %5 = alloca ptr, align 8
  %6 = alloca i32, align 4
  %7 = alloca i32, align 4
  %8 = alloca i32, align 4
  store ptr %0, ptr %5, align 8, !tbaa !3
  store i32 %1, ptr %6, align 4, !tbaa !8
  store i32 %2, ptr %7, align 4, !tbaa !34
  store i32 %3, ptr %8, align 4, !tbaa !34
  %9 = load ptr, ptr %5, align 8
  %10 = getelementptr inbounds nuw %"class.draco::FloatPointsTreeEncoder", ptr %9, i32 0, i32 1
  %11 = load i32, ptr %6, align 4, !tbaa !8
  store i32 %11, ptr %10, align 8, !tbaa !10
  %12 = getelementptr inbounds nuw %"class.draco::FloatPointsTreeEncoder", ptr %9, i32 0, i32 2
  store i32 0, ptr %12, align 4, !tbaa !30
  %13 = getelementptr inbounds nuw %"class.draco::FloatPointsTreeEncoder", ptr %9, i32 0, i32 3
  call void @_ZN5draco13EncoderBufferC1Ev(ptr noundef nonnull align 8 dereferenceable(41) %13)
  %14 = getelementptr inbounds nuw %"class.draco::FloatPointsTreeEncoder", ptr %9, i32 0, i32 4
  %15 = load i32, ptr %8, align 4, !tbaa !34
  store i32 %15, ptr %14, align 8, !tbaa !31
  %16 = load i32, ptr %7, align 4, !tbaa !34
  %17 = getelementptr inbounds nuw %"class.draco::FloatPointsTreeEncoder", ptr %9, i32 0, i32 0
  %18 = getelementptr inbounds nuw %"struct.draco::QuantizationInfo", ptr %17, i32 0, i32 0
  store i32 %16, ptr %18, align 8, !tbaa !32
  %19 = getelementptr inbounds nuw %"class.draco::FloatPointsTreeEncoder", ptr %9, i32 0, i32 0
  %20 = getelementptr inbounds nuw %"struct.draco::QuantizationInfo", ptr %19, i32 0, i32 1
  store float 0.000000e+00, ptr %20, align 4, !tbaa !33
  ret void
}